target datalayout = "e-m:e-p270:32:32-p271:32:32-p272:64:64-i64:64-i128:128-f80:128-n8:16:32:64-S128"
target triple = "x86_64-pc-linux-gnu"

%struct.strbuf = type { i64, i64, ptr }
%struct.ref_format = type { ptr, ptr, i32, i32, i32, %struct.anon }
%struct.anon = type { i32, i32 }
%struct.ref_filter_and_format_cbdata = type { ptr, ptr, %struct.ref_filter_and_format_internal }
%struct.ref_filter_and_format_internal = type { i32 }

@.str.5 = private unnamed_addr constant [3 x i8] c"%s\00", align 1
@stdout = external global ptr, align 8
@__const.filter_and_format_one.output = private unnamed_addr constant %struct.strbuf { i64 0, i64 0, ptr @strbuf_slopbuf }, align 8
@__const.filter_and_format_one.err = private unnamed_addr constant %struct.strbuf { i64 0, i64 0, ptr @strbuf_slopbuf }, align 8

; Function Attrs: inlinehint nounwind uwtable
define available_externally i32 @putchar(i32 noundef %0) #1 {
  %2 = alloca i32, align 4
  store i32 %0, ptr %2, align 4, !tbaa !15
  %3 = load i32, ptr %2, align 4, !tbaa !15
  %4 = load ptr, ptr @stdout, align 8, !tbaa !151
  %5 = call i32 @putc(i32 noundef %3, ptr noundef %4)
  ret i32 %5
}

; Function Attrs: nounwind uwtable
define internal i32 @filter_and_format_one(ptr noundef %0, ptr noundef %1, ptr noundef %2, i32 noundef %3, ptr noundef %4) #0 {
  %6 = alloca i32, align 4
  %7 = alloca ptr, align 8
  %8 = alloca ptr, align 8
  %9 = alloca ptr, align 8
  %10 = alloca i32, align 4
  %11 = alloca ptr, align 8
  %12 = alloca ptr, align 8
  %13 = alloca ptr, align 8
  %14 = alloca %struct.strbuf, align 8
  %15 = alloca %struct.strbuf, align 8
  %16 = alloca i32, align 4
  store ptr %0, ptr %7, align 8, !tbaa !13
  store ptr %1, ptr %8, align 8, !tbaa !13
  store ptr %2, ptr %9, align 8, !tbaa !68
  store i32 %3, ptr %10, align 4, !tbaa !15
  store ptr %4, ptr %11, align 8, !tbaa !118
  call void @llvm.lifetime.start.p0(i64 8, ptr %12) #11
  %17 = load ptr, ptr %11, align 8, !tbaa !118
  store ptr %17, ptr %12, align 8, !tbaa !147
  call void @llvm.lifetime.start.p0(i64 8, ptr %13) #11
  call void @llvm.lifetime.start.p0(i64 24, ptr %14) #11
  call void @llvm.memcpy.p0.p0.i64(ptr align 8 %14, ptr align 8 @__const.filter_and_format_one.output, i64 24, i1 false)
  call void @llvm.lifetime.start.p0(i64 24, ptr %15) #11
  call void @llvm.memcpy.p0.p0.i64(ptr align 8 %15, ptr align 8 @__const.filter_and_format_one.err, i64 24, i1 false)
  %18 = load ptr, ptr %7, align 8, !tbaa !13
  %19 = load ptr, ptr %8, align 8, !tbaa !13
  %20 = load ptr, ptr %9, align 8, !tbaa !68
  %21 = load i32, ptr %10, align 4, !tbaa !15
  %22 = load ptr, ptr %12, align 8, !tbaa !147
  %23 = getelementptr inbounds nuw %struct.ref_filter_and_format_cbdata, ptr %22, i32 0, i32 0
  %24 = load ptr, ptr %23, align 8, !tbaa !136
  %25 = call ptr @apply_ref_filter(ptr noundef %18, ptr noundef %19, ptr noundef %20, i32 noundef %21, ptr noundef %24)
  store ptr %25, ptr %13, align 8, !tbaa !69
  %26 = load ptr, ptr %13, align 8, !tbaa !69
  %27 = icmp ne ptr %26, null
  br i1 %27, label %29, label %28

28:                                               ; preds = %5
  store i32 0, ptr %6, align 4
  store i32 1, ptr %16, align 4
  br label %83

29:                                               ; preds = %5
  %30 = load ptr, ptr %13, align 8, !tbaa !69
  %31 = load ptr, ptr %12, align 8, !tbaa !147
  %32 = getelementptr inbounds nuw %struct.ref_filter_and_format_cbdata, ptr %31, i32 0, i32 1
  %33 = load ptr, ptr %32, align 8, !tbaa !139
  %34 = call i32 @format_ref_array_item(ptr noundef %30, ptr noundef %33, ptr noundef %14, ptr noundef %15)
  %35 = icmp ne i32 %34, 0
  br i1 %35, label %36, label %39

36:                                               ; preds = %29
  %37 = getelementptr inbounds nuw %struct.strbuf, ptr %15, i32 0, i32 2
  %38 = load ptr, ptr %37, align 8, !tbaa !23
  call void (ptr, ...) @die(ptr noundef @.str.5, ptr noundef %38) #13
  unreachable

39:                                               ; preds = %29
  %40 = getelementptr inbounds nuw %struct.strbuf, ptr %14, i32 0, i32 1
  %41 = load i64, ptr %40, align 8, !tbaa !149
  %42 = icmp ne i64 %41, 0
  br i1 %42, label %51, label %43

43:                                               ; preds = %39
  %44 = load ptr, ptr %12, align 8, !tbaa !147
  %45 = getelementptr inbounds nuw %struct.ref_filter_and_format_cbdata, ptr %44, i32 0, i32 1
  %46 = load ptr, ptr %45, align 8, !tbaa !139
  %47 = getelementptr inbounds nuw %struct.ref_format, ptr %46, i32 0, i32 5
  %48 = getelementptr inbounds nuw %struct.anon, ptr %47, i32 0, i32 1
  %49 = load i32, ptr %48, align 4, !tbaa !150
  %50 = icmp ne i32 %49, 0
  br i1 %50, label %59, label %51

51:                                               ; preds = %43, %39
  %52 = getelementptr inbounds nuw %struct.strbuf, ptr %14, i32 0, i32 2
  %53 = load ptr, ptr %52, align 8, !tbaa !23
  %54 = getelementptr inbounds nuw %struct.strbuf, ptr %14, i32 0, i32 1
  %55 = load i64, ptr %54, align 8, !tbaa !149
  %56 = load ptr, ptr @stdout, align 8, !tbaa !151
  %57 = call i64 @fwrite(ptr noundef %53, i64 noundef 1, i64 noundef %55, ptr noundef %56)
  %58 = call i32 @putchar(i32 noundef 10)
  br label %59

59:                                               ; preds = %51, %43
  call void @strbuf_release(ptr noundef %14)
  call void @strbuf_release(ptr noundef %15)
  %60 = load ptr, ptr %13, align 8, !tbaa !69
  call void @free_array_item(ptr noundef %60)
  %61 = load ptr, ptr %12, align 8, !tbaa !147
  %62 = getelementptr inbounds nuw %struct.ref_filter_and_format_cbdata, ptr %61, i32 0, i32 1
  %63 = load ptr, ptr %62, align 8, !tbaa !139
  %64 = getelementptr inbounds nuw %struct.ref_format, ptr %63, i32 0, i32 5
  %65 = getelementptr inbounds nuw %struct.anon, ptr %64, i32 0, i32 0
  %66 = load i32, ptr %65, align 4, !tbaa !153
  %67 = icmp ne i32 %66, 0
  br i1 %67, label %68, label %82

68:                                               ; preds = %59
  %69 = load ptr, ptr %12, align 8, !tbaa !147
  %70 = getelementptr inbounds nuw %struct.ref_filter_and_format_cbdata, ptr %69, i32 0, i32 2
  %71 = getelementptr inbounds nuw %struct.ref_filter_and_format_internal, ptr %70, i32 0, i32 0
  %72 = load i32, ptr %71, align 8, !tbaa !154
  %73 = add nsw i32 %72, 1
  store i32 %73, ptr %71, align 8, !tbaa !154
  %74 = load ptr, ptr %12, align 8, !tbaa !147
  %75 = getelementptr inbounds nuw %struct.ref_filter_and_format_cbdata, ptr %74, i32 0, i32 1
  %76 = load ptr, ptr %75, align 8, !tbaa !139
  %77 = getelementptr inbounds nuw %struct.ref_format, ptr %76, i32 0, i32 5
  %78 = getelementptr inbounds nuw %struct.anon, ptr %77, i32 0, i32 0
  %79 = load i32, ptr %78, align 4, !tbaa !153
  %80 = icmp sge i32 %73, %79
  br i1 %80, label %81, label %82

81:                                               ; preds = %68
  store i32 1, ptr %6, align 4
  store i32 1, ptr %16, align 4
  br label %83

82:                                               ; preds = %68, %59
  store i32 0, ptr %6, align 4
  store i32 1, ptr %16, align 4
  br label %83

83:                                               ; preds = %82, %81, %28
  call void @llvm.lifetime.end.p0(i64 24, ptr %15) #11
  call void @llvm.lifetime.end.p0(i64 24, ptr %14) #11
  call void @llvm.lifetime.end.p0(i64 8, ptr %13) #11
  call void @llvm.lifetime.end.p0(i64 8, ptr %12) #11
  %84 = load i32, ptr %6, align 4
  ret i32 %84
}