; Function Attrs: nounwind uwtable
define internal range(i32 0, 2) i32 @filter_and_format_one(ptr noundef %0, ptr noundef %1, ptr noundef %2, i32 noundef %3, ptr noundef captures(none) %4) #0 {
  %6 = alloca %struct.strbuf, align 8
  %7 = alloca %struct.strbuf, align 8
  call void @llvm.lifetime.start.p0(i64 24, ptr nonnull %6) #23
  call void @llvm.memcpy.p0.p0.i64(ptr noundef nonnull align 8 dereferenceable(24) %6, ptr noundef nonnull align 8 dereferenceable(24) @__const.parse_sorting_atom.err, i64 24, i1 false)
  call void @llvm.lifetime.start.p0(i64 24, ptr nonnull %7) #23
  call void @llvm.memcpy.p0.p0.i64(ptr noundef nonnull align 8 dereferenceable(24) %7, ptr noundef nonnull align 8 dereferenceable(24) @__const.parse_sorting_atom.err, i64 24, i1 false)
  %8 = load ptr, ptr %4, align 8, !tbaa !132
  %9 = tail call fastcc ptr @apply_ref_filter(ptr noundef %0, ptr noundef %1, ptr noundef %2, i32 noundef %3, ptr noundef %8)
  %.not = icmp eq ptr %9, null
  br i1 %.not, label %40, label %10

10:                                               ; preds = %5
  %11 = getelementptr inbounds nuw i8, ptr %4, i64 8
  %12 = load ptr, ptr %11, align 8, !tbaa !136
  %13 = call i32 @format_ref_array_item(ptr noundef nonnull %9, ptr noundef %12, ptr noundef nonnull %6, ptr noundef nonnull %7)
  %.not15 = icmp eq i32 %13, 0
  br i1 %.not15, label %17, label %14

14:                                               ; preds = %10
  %15 = getelementptr inbounds nuw i8, ptr %7, i64 16
  %16 = load ptr, ptr %15, align 8, !tbaa !22
  call void (ptr, ...) @die(ptr noundef nonnull @.str.5, ptr noundef %16) #25
  unreachable

17:                                               ; preds = %10
  %18 = getelementptr inbounds nuw i8, ptr %6, i64 8
  %19 = load i64, ptr %18, align 8, !tbaa !137
  %.not16 = icmp eq i64 %19, 0
  br i1 %.not16, label %20, label %24

20:                                               ; preds = %17
  %21 = load ptr, ptr %11, align 8, !tbaa !136
  %22 = getelementptr inbounds nuw i8, ptr %21, i64 32
  %23 = load i32, ptr %22, align 4, !tbaa !138
  %.not17 = icmp eq i32 %23, 0
  br i1 %.not17, label %24, label %31

24:                                               ; preds = %20, %17
  %25 = getelementptr inbounds nuw i8, ptr %6, i64 16
  %26 = load ptr, ptr %25, align 8, !tbaa !22
  %27 = load ptr, ptr @stdout, align 8, !tbaa !139
  %28 = call i64 @fwrite(ptr noundef %26, i64 noundef 1, i64 noundef %19, ptr noundef %27)
  %29 = load ptr, ptr @stdout, align 8, !tbaa !139
  %30 = call i32 @putc(i32 noundef 10, ptr noundef %29)
  br label %31

31:                                               ; preds = %24, %20
  call void @strbuf_release(ptr noundef nonnull %6) #23
  call void @strbuf_release(ptr noundef nonnull %7) #23
  call fastcc void @free_array_item(ptr noundef nonnull %9)
  %32 = load ptr, ptr %11, align 8, !tbaa !136
  %33 = getelementptr inbounds nuw i8, ptr %32, i64 28
  %34 = load i32, ptr %33, align 4, !tbaa !141
  %.not18 = icmp eq i32 %34, 0
  br i1 %.not18, label %39, label %35

35:                                               ; preds = %31
  %36 = getelementptr inbounds nuw i8, ptr %4, i64 16
  %37 = load i32, ptr %36, align 8, !tbaa !142
  %38 = add nsw i32 %37, 1
  store i32 %38, ptr %36, align 8, !tbaa !142
  %.not19 = icmp slt i32 %38, %34
  br i1 %.not19, label %39, label %40

39:                                               ; preds = %35, %31
  br label %40

40:                                               ; preds = %35, %5, %39
  %.0 = phi i32 [ 0, %39 ], [ 0, %5 ], [ 1, %35 ]
  call void @llvm.lifetime.end.p0(i64 24, ptr nonnull %7) #23
  call void @llvm.lifetime.end.p0(i64 24, ptr nonnull %6) #23
  ret i32 %.0
}